target datalayout = "e-m:e-p270:32:32-p271:32:32-p272:64:64-i64:64-i128:128-f80:128-n8:16:32:64-S128"
target triple = "x86_64-pc-linux-gnu"

%union.LWLockPadded = type { %struct.LWLock, [112 x i8] }
%struct.LWLock = type { i16, %struct.pg_atomic_uint32, %struct.proclist_head }
%struct.pg_atomic_uint32 = type { i32 }
%struct.proclist_head = type { i32, i32 }
%struct.ReplicationState = type { i16, i64, i64, i32, %struct.ConditionVariable, %struct.LWLock }
%struct.ConditionVariable = type { i8, %struct.proclist_head }
%struct.xl_replorigin_set = type { i64, i16, i8 }

@.str.1 = private unnamed_addr constant [9 x i8] c"origin.c\00", align 1
@max_replication_slots = external global i32, align 4
@replication_states = internal global ptr null, align 8
@MainLWLockArray = external global ptr, align 8
@.str.21 = private unnamed_addr constant [59 x i8] c"replication origin with ID %d is already active for PID %d\00", align 1
@__func__.replorigin_advance = private unnamed_addr constant [19 x i8] c"replorigin_advance\00", align 1
@.str.22 = private unnamed_addr constant [77 x i8] c"could not find free replication state slot for replication origin with ID %d\00", align 1
@.str.23 = private unnamed_addr constant [48 x i8] c"Increase \22max_replication_slots\22 and try again.\00", align 1

; Function Attrs: nounwind uwtable
define dso_local void @replorigin_advance(i16 noundef zeroext %0, i64 noundef %1, i64 noundef %2, i1 noundef zeroext %3, i1 noundef zeroext %4) #0 {
  %6 = alloca i16, align 2
  %7 = alloca i64, align 8
  %8 = alloca i64, align 8
  %9 = alloca i8, align 1
  %10 = alloca i8, align 1
  %11 = alloca i32, align 4
  %12 = alloca ptr, align 8
  %13 = alloca ptr, align 8
  %14 = alloca i32, align 4
  %15 = alloca ptr, align 8
  %16 = alloca %struct.xl_replorigin_set, align 8
  store i16 %0, ptr %6, align 2
  store i64 %1, ptr %7, align 8
  store i64 %2, ptr %8, align 8
  %17 = zext i1 %3 to i8
  store i8 %17, ptr %9, align 1
  %18 = zext i1 %4 to i8
  store i8 %18, ptr %10, align 1
  call void @llvm.lifetime.start.p0(i64 4, ptr %11) #9
  call void @llvm.lifetime.start.p0(i64 8, ptr %12) #9
  store ptr null, ptr %12, align 8
  call void @llvm.lifetime.start.p0(i64 8, ptr %13) #9
  store ptr null, ptr %13, align 8
  %19 = load i16, ptr %6, align 2
  %20 = zext i16 %19 to i32
  %21 = icmp eq i32 %20, 65535
  br i1 %21, label %22, label %23

22:                                               ; preds = %5
  store i32 1, ptr %14, align 4
  br label %168

23:                                               ; preds = %5
  %24 = load ptr, ptr @MainLWLockArray, align 8
  %25 = getelementptr inbounds %union.LWLockPadded, ptr %24, i64 40
  %26 = call zeroext i1 @LWLockAcquire(ptr noundef %25, i32 noundef 0)
  store i32 0, ptr %11, align 4
  br label %27

27:                                               ; preds = %86, %23
  %28 = load i32, ptr %11, align 4
  %29 = load i32, ptr @max_replication_slots, align 4
  %30 = icmp slt i32 %28, %29
  br i1 %30, label %31, label %89

31:                                               ; preds = %27
  call void @llvm.lifetime.start.p0(i64 8, ptr %15) #9
  %32 = load ptr, ptr @replication_states, align 8
  %33 = load i32, ptr %11, align 4
  %34 = sext i32 %33 to i64
  %35 = getelementptr inbounds %struct.ReplicationState, ptr %32, i64 %34
  store ptr %35, ptr %15, align 8
  %36 = load ptr, ptr %15, align 8
  %37 = getelementptr inbounds nuw %struct.ReplicationState, ptr %36, i32 0, i32 0
  %38 = load i16, ptr %37, align 8
  %39 = zext i16 %38 to i32
  %40 = icmp eq i32 %39, 0
  br i1 %40, label %41, label %46

41:                                               ; preds = %31
  %42 = load ptr, ptr %13, align 8
  %43 = icmp eq ptr %42, null
  br i1 %43, label %44, label %46

44:                                               ; preds = %41
  %45 = load ptr, ptr %15, align 8
  store ptr %45, ptr %13, align 8
  store i32 4, ptr %14, align 4
  br label %84

46:                                               ; preds = %41, %31
  %47 = load ptr, ptr %15, align 8
  %48 = getelementptr inbounds nuw %struct.ReplicationState, ptr %47, i32 0, i32 0
  %49 = load i16, ptr %48, align 8
  %50 = zext i16 %49 to i32
  %51 = load i16, ptr %6, align 2
  %52 = zext i16 %51 to i32
  %53 = icmp ne i32 %50, %52
  br i1 %53, label %54, label %55

54:                                               ; preds = %46
  store i32 4, ptr %14, align 4
  br label %84

55:                                               ; preds = %46
  %56 = load ptr, ptr %15, align 8
  store ptr %56, ptr %12, align 8
  %57 = load ptr, ptr %12, align 8
  %58 = getelementptr inbounds nuw %struct.ReplicationState, ptr %57, i32 0, i32 5
  %59 = call zeroext i1 @LWLockAcquire(ptr noundef %58, i32 noundef 0)
  %60 = load ptr, ptr %12, align 8
  %61 = getelementptr inbounds nuw %struct.ReplicationState, ptr %60, i32 0, i32 3
  %62 = load i32, ptr %61, align 8
  %63 = icmp ne i32 %62, 0
  br i1 %63, label %64, label %83

64:                                               ; preds = %55
  br label %65

65:                                               ; preds = %64
  br i1 true, label %66, label %68

66:                                               ; preds = %65
  %67 = call zeroext i1 @errstart_cold(i32 noundef 21, ptr noundef null) #10
  br i1 %67, label %70, label %80

68:                                               ; preds = %65
  %69 = call zeroext i1 @errstart(i32 noundef 21, ptr noundef null)
  br i1 %69, label %70, label %80

70:                                               ; preds = %68, %66
  %71 = call i32 @errcode(i32 noundef 100663621)
  %72 = load ptr, ptr %12, align 8
  %73 = getelementptr inbounds nuw %struct.ReplicationState, ptr %72, i32 0, i32 0
  %74 = load i16, ptr %73, align 8
  %75 = zext i16 %74 to i32
  %76 = load ptr, ptr %12, align 8
  %77 = getelementptr inbounds nuw %struct.ReplicationState, ptr %76, i32 0, i32 3
  %78 = load i32, ptr %77, align 8
  %79 = call i32 (ptr, ...) @errmsg(ptr noundef @.str.21, i32 noundef %75, i32 noundef %78)
  call void @errfinish(ptr noundef @.str.1, i32 noundef 950, ptr noundef @__func__.replorigin_advance)
  br label %80

80:                                               ; preds = %70, %68, %66
  unreachable

81:                                               ; No predecessors!
  br label %82

82:                                               ; preds = %81
  br label %83

83:                                               ; preds = %82, %55
  store i32 2, ptr %14, align 4
  br label %84

84:                                               ; preds = %83, %54, %44
  call void @llvm.lifetime.end.p0(i64 8, ptr %15) #9
  %85 = load i32, ptr %14, align 4
  switch i32 %85, label %171 [
    i32 4, label %86
    i32 2, label %89
  ]

86:                                               ; preds = %84
  %87 = load i32, ptr %11, align 4
  %88 = add i32 %87, 1
  store i32 %88, ptr %11, align 4
  br label %27, !llvm.loop !13

89:                                               ; preds = %84, %27
  %90 = load ptr, ptr %12, align 8
  %91 = icmp eq ptr %90, null
  br i1 %91, label %92, label %110

92:                                               ; preds = %89
  %93 = load ptr, ptr %13, align 8
  %94 = icmp eq ptr %93, null
  br i1 %94, label %95, label %110

95:                                               ; preds = %92
  br label %96

96:                                               ; preds = %95
  br i1 true, label %97, label %99

97:                                               ; preds = %96
  %98 = call zeroext i1 @errstart_cold(i32 noundef 21, ptr noundef null) #10
  br i1 %98, label %101, label %107

99:                                               ; preds = %96
  %100 = call zeroext i1 @errstart(i32 noundef 21, ptr noundef null)
  br i1 %100, label %101, label %107

101:                                              ; preds = %99, %97
  %102 = call i32 @errcode(i32 noundef 16581)
  %103 = load i16, ptr %6, align 2
  %104 = zext i16 %103 to i32
  %105 = call i32 (ptr, ...) @errmsg(ptr noundef @.str.22, i32 noundef %104)
  %106 = call i32 (ptr, ...) @errhint(ptr noundef @.str.23)
  call void @errfinish(ptr noundef @.str.1, i32 noundef 961, ptr noundef @__func__.replorigin_advance)
  br label %107

107:                                              ; preds = %101, %99, %97
  unreachable

108:                                              ; No predecessors!
  br label %109

109:                                              ; preds = %108
  br label %110

110:                                              ; preds = %109, %92, %89
  %111 = load ptr, ptr %12, align 8
  %112 = icmp eq ptr %111, null
  br i1 %112, label %113, label %121

113:                                              ; preds = %110
  %114 = load ptr, ptr %13, align 8
  %115 = getelementptr inbounds nuw %struct.ReplicationState, ptr %114, i32 0, i32 5
  %116 = call zeroext i1 @LWLockAcquire(ptr noundef %115, i32 noundef 0)
  %117 = load ptr, ptr %13, align 8
  store ptr %117, ptr %12, align 8
  %118 = load i16, ptr %6, align 2
  %119 = load ptr, ptr %12, align 8
  %120 = getelementptr inbounds nuw %struct.ReplicationState, ptr %119, i32 0, i32 0
  store i16 %118, ptr %120, align 8
  br label %121

121:                                              ; preds = %113, %110
  %122 = load i8, ptr %10, align 1, !range !4, !noundef !5
  %123 = trunc i8 %122 to i1
  br i1 %123, label %124, label %134

124:                                              ; preds = %121
  call void @llvm.lifetime.start.p0(i64 16, ptr %16) #9
  %125 = load i64, ptr %7, align 8
  %126 = getelementptr inbounds nuw %struct.xl_replorigin_set, ptr %16, i32 0, i32 0
  store i64 %125, ptr %126, align 8
  %127 = load i16, ptr %6, align 2
  %128 = getelementptr inbounds nuw %struct.xl_replorigin_set, ptr %16, i32 0, i32 1
  store i16 %127, ptr %128, align 8
  %129 = load i8, ptr %9, align 1, !range !4, !noundef !5
  %130 = trunc i8 %129 to i1
  %131 = getelementptr inbounds nuw %struct.xl_replorigin_set, ptr %16, i32 0, i32 2
  %132 = zext i1 %130 to i8
  store i8 %132, ptr %131, align 2
  call void @XLogBeginInsert()
  call void @XLogRegisterData(ptr noundef %16, i32 noundef 16)
  %133 = call i64 @XLogInsert(i8 noundef zeroext 19, i8 noundef zeroext 0)
  call void @llvm.lifetime.end.p0(i64 16, ptr %16) #9
  br label %134

134:                                              ; preds = %124, %121
  %135 = load i8, ptr %9, align 1, !range !4, !noundef !5
  %136 = trunc i8 %135 to i1
  br i1 %136, label %143, label %137

137:                                              ; preds = %134
  %138 = load ptr, ptr %12, align 8
  %139 = getelementptr inbounds nuw %struct.ReplicationState, ptr %138, i32 0, i32 1
  %140 = load i64, ptr %139, align 8
  %141 = load i64, ptr %7, align 8
  %142 = icmp ult i64 %140, %141
  br i1 %142, label %143, label %147

143:                                              ; preds = %137, %134
  %144 = load i64, ptr %7, align 8
  %145 = load ptr, ptr %12, align 8
  %146 = getelementptr inbounds nuw %struct.ReplicationState, ptr %145, i32 0, i32 1
  store i64 %144, ptr %146, align 8
  br label %147

147:                                              ; preds = %143, %137
  %148 = load i64, ptr %8, align 8
  %149 = icmp ne i64 %148, 0
  br i1 %149, label %150, label %163

150:                                              ; preds = %147
  %151 = load i8, ptr %9, align 1, !range !4, !noundef !5
  %152 = trunc i8 %151 to i1
  br i1 %152, label %159, label %153

153:                                              ; preds = %150
  %154 = load ptr, ptr %12, align 8
  %155 = getelementptr inbounds nuw %struct.ReplicationState, ptr %154, i32 0, i32 2
  %156 = load i64, ptr %155, align 8
  %157 = load i64, ptr %8, align 8
  %158 = icmp ult i64 %156, %157
  br i1 %158, label %159, label %163

159:                                              ; preds = %153, %150
  %160 = load i64, ptr %8, align 8
  %161 = load ptr, ptr %12, align 8
  %162 = getelementptr inbounds nuw %struct.ReplicationState, ptr %161, i32 0, i32 2
  store i64 %160, ptr %162, align 8
  br label %163

163:                                              ; preds = %159, %153, %147
  %164 = load ptr, ptr %12, align 8
  %165 = getelementptr inbounds nuw %struct.ReplicationState, ptr %164, i32 0, i32 5
  call void @LWLockRelease(ptr noundef %165)
  %166 = load ptr, ptr @MainLWLockArray, align 8
  %167 = getelementptr inbounds %union.LWLockPadded, ptr %166, i64 40
  call void @LWLockRelease(ptr noundef %167)
  store i32 0, ptr %14, align 4
  br label %168

168:                                              ; preds = %163, %22
  call void @llvm.lifetime.end.p0(i64 8, ptr %13) #9
  call void @llvm.lifetime.end.p0(i64 8, ptr %12) #9
  call void @llvm.lifetime.end.p0(i64 4, ptr %11) #9
  %169 = load i32, ptr %14, align 4
  switch i32 %169, label %171 [
    i32 0, label %170
    i32 1, label %170
  ]

170:                                              ; preds = %168, %168
  ret void

171:                                              ; preds = %168, %84
  unreachable
}