; Function Attrs: nounwind uwtable
define dso_local void @replorigin_advance(i16 noundef zeroext %0, i64 noundef %1, i64 noundef %2, i1 noundef zeroext %3, i1 noundef zeroext %4) local_unnamed_addr #0 {
  %6 = alloca %struct.xl_replorigin_set, align 8
  %7 = zext i1 %3 to i8
  %8 = icmp eq i16 %0, -1
  br i1 %8, label %63, label %9

9:                                                ; preds = %5
  %10 = load ptr, ptr @MainLWLockArray, align 8
  %11 = getelementptr inbounds nuw i8, ptr %10, i64 5120
  %12 = tail call zeroext i1 @LWLockAcquire(ptr noundef nonnull %11, i32 noundef 0) #10
  %13 = load i32, ptr @max_replication_slots, align 4
  %14 = icmp sgt i32 %13, 0
  br i1 %14, label %.lr.ph, label %._crit_edge.thread

.lr.ph:                                           ; preds = %9
  %15 = load ptr, ptr @replication_states, align 8
  %wide.trip.count = zext nneg i32 %13 to i64
  br label %16

16:                                               ; preds = %.lr.ph, %34
  %indvars.iv = phi i64 [ 0, %.lr.ph ], [ %indvars.iv.next, %34 ]
  %.04271 = phi ptr [ null, %.lr.ph ], [ %.2.ph, %34 ]
  %17 = getelementptr inbounds nuw %struct.ReplicationState, ptr %15, i64 %indvars.iv
  %18 = load i16, ptr %17, align 8
  %19 = icmp eq i16 %18, 0
  %20 = icmp eq ptr %.04271, null
  %or.cond = select i1 %19, i1 %20, i1 false
  br i1 %or.cond, label %34, label %21

21:                                               ; preds = %16
  %.not = icmp eq i16 %18, %0
  br i1 %.not, label %22, label %34

22:                                               ; preds = %21
  %23 = getelementptr inbounds nuw i8, ptr %17, i64 40
  %24 = tail call zeroext i1 @LWLockAcquire(ptr noundef nonnull %23, i32 noundef 0) #10
  %25 = getelementptr inbounds nuw i8, ptr %17, i64 24
  %26 = load i32, ptr %25, align 8
  %.not48 = icmp eq i32 %26, 0
  br i1 %.not48, label %.thread57, label %27

27:                                               ; preds = %22
  %28 = tail call zeroext i1 @errstart_cold(i32 noundef 21, ptr noundef null) #11
  tail call void @llvm.assume(i1 %28)
  %29 = tail call i32 @errcode(i32 noundef 100663621) #10
  %30 = load i16, ptr %17, align 8
  %31 = zext i16 %30 to i32
  %32 = load i32, ptr %25, align 8
  %33 = tail call i32 (ptr, ...) @errmsg(ptr noundef nonnull @.str.21, i32 noundef %31, i32 noundef %32) #10
  tail call void @errfinish(ptr noundef nonnull @.str.1, i32 noundef 950, ptr noundef nonnull @__func__.replorigin_advance) #10
  unreachable

34:                                               ; preds = %16, %21
  %.2.ph = phi ptr [ %.04271, %21 ], [ %17, %16 ]
  %indvars.iv.next = add nuw nsw i64 %indvars.iv, 1
  %exitcond.not = icmp eq i64 %indvars.iv.next, %wide.trip.count
  br i1 %exitcond.not, label %._crit_edge, label %16, !llvm.loop !13

._crit_edge:                                      ; preds = %34
  %35 = icmp eq ptr %.2.ph, null
  br i1 %35, label %._crit_edge.thread, label %41

._crit_edge.thread:                               ; preds = %9, %._crit_edge
  %36 = zext i16 %0 to i32
  %37 = tail call zeroext i1 @errstart_cold(i32 noundef 21, ptr noundef null) #11
  tail call void @llvm.assume(i1 %37)
  %38 = tail call i32 @errcode(i32 noundef 16581) #10
  %39 = tail call i32 (ptr, ...) @errmsg(ptr noundef nonnull @.str.22, i32 noundef %36) #10
  %40 = tail call i32 (ptr, ...) @errhint(ptr noundef nonnull @.str.23) #10
  tail call void @errfinish(ptr noundef nonnull @.str.1, i32 noundef 961, ptr noundef nonnull @__func__.replorigin_advance) #10
  unreachable

41:                                               ; preds = %._crit_edge
  %42 = getelementptr inbounds nuw i8, ptr %.2.ph, i64 40
  %43 = tail call zeroext i1 @LWLockAcquire(ptr noundef nonnull %42, i32 noundef 0) #10
  store i16 %0, ptr %.2.ph, align 8
  br label %.thread57

.thread57:                                        ; preds = %22, %41
  %.3 = phi ptr [ %.2.ph, %41 ], [ %17, %22 ]
  br i1 %4, label %44, label %48

44:                                               ; preds = %.thread57
  call void @llvm.lifetime.start.p0(i64 16, ptr nonnull %6) #10
  store i64 %1, ptr %6, align 8
  %45 = getelementptr inbounds nuw i8, ptr %6, i64 8
  store i16 %0, ptr %45, align 8
  %46 = getelementptr inbounds nuw i8, ptr %6, i64 10
  store i8 %7, ptr %46, align 2
  tail call void @XLogBeginInsert() #10
  call void @XLogRegisterData(ptr noundef nonnull %6, i32 noundef 16) #10
  %47 = call i64 @XLogInsert(i8 noundef zeroext 19, i8 noundef zeroext 0) #10
  call void @llvm.lifetime.end.p0(i64 16, ptr nonnull %6) #10
  br label %48

48:                                               ; preds = %44, %.thread57
  %49 = getelementptr inbounds nuw i8, ptr %.3, i64 8
  br i1 %3, label %53, label %50

50:                                               ; preds = %48
  %51 = load i64, ptr %49, align 8
  %52 = icmp ult i64 %51, %1
  br i1 %52, label %.thread67, label %.thread64

53:                                               ; preds = %48
  store i64 %1, ptr %49, align 8
  %.not49 = icmp eq i64 %2, 0
  br i1 %.not49, label %59, label %57

.thread67:                                        ; preds = %50
  store i64 %1, ptr %49, align 8
  %.not4968 = icmp eq i64 %2, 0
  br i1 %.not4968, label %59, label %.thread66

.thread64:                                        ; preds = %50
  %.not4965 = icmp eq i64 %2, 0
  br i1 %.not4965, label %59, label %.thread66

.thread66:                                        ; preds = %.thread67, %.thread64
  %54 = getelementptr inbounds nuw i8, ptr %.3, i64 16
  %55 = load i64, ptr %54, align 8
  %56 = icmp ult i64 %55, %2
  br i1 %56, label %57, label %59

57:                                               ; preds = %53, %.thread66
  %58 = getelementptr inbounds nuw i8, ptr %.3, i64 16
  store i64 %2, ptr %58, align 8
  br label %59

59:                                               ; preds = %.thread67, %.thread64, %57, %.thread66, %53
  %60 = getelementptr inbounds nuw i8, ptr %.3, i64 40
  call void @LWLockRelease(ptr noundef nonnull %60) #10
  %61 = load ptr, ptr @MainLWLockArray, align 8
  %62 = getelementptr inbounds nuw i8, ptr %61, i64 5120
  call void @LWLockRelease(ptr noundef nonnull %62) #10
  br label %63

63:                                               ; preds = %5, %59
  ret void
}